; ModuleID = '58/48.c'
source_filename = "58/48.c"
target datalayout = "e-m:e-p270:32:32-p271:32:32-p272:64:64-i64:64-f80:128-n8:16:32:64-S128"
target triple = "x86_64-pc-linux-gnu"

@.str = private unnamed_addr constant [4 x i8] c"%d\0A\00", align 1
@.str.1 = private unnamed_addr constant [3 x i8] c"0\0A\00", align 1
@.str.2 = private unnamed_addr constant [3 x i8] c"1\0A\00", align 1

; Function Attrs: noinline nounwind uwtable
define dso_local void @main() #0 {
  %1 = alloca [100 x i8], align 16
  %2 = alloca i32, align 4
  %3 = alloca i32, align 4
  %4 = alloca i8*, align 8
  store i32 0, i32* %2, align 4
  %5 = call i32 (i8*, ...) @__isoc99_scanf(i8* getelementptr inbounds ([4 x i8], [4 x i8]* @.str, i64 0, i64 0), i32* %2)
  br label %6

6:                                                ; preds = %72, %56, %17, %0
  %7 = load i32, i32* %2, align 4
  %8 = add nsw i32 %7, -1
  store i32 %8, i32* %2, align 4
  %9 = icmp ne i32 %7, 0
  br i1 %9, label %10, label %73

10:                                               ; preds = %6
  store i32 0, i32* %3, align 4
  %11 = getelementptr inbounds [100 x i8], [100 x i8]* %1, i64 0, i64 0
  %12 = call i32 (i8*, ...) bitcast (i32 (...)* @gets to i32 (i8*, ...)*)(i8* %11)
  %13 = getelementptr inbounds [100 x i8], [100 x i8]* %1, i64 0, i64 0
  %14 = load i8, i8* %13, align 16
  %15 = sext i8 %14 to i32
  %16 = icmp eq i32 %15, 0
  br i1 %16, label %17, label %20

17:                                               ; preds = %10
  %18 = load i32, i32* %2, align 4
  %19 = add nsw i32 %18, 1
  store i32 %19, i32* %2, align 4
  br label %6

20:                                               ; preds = %10
  %21 = getelementptr inbounds [100 x i8], [100 x i8]* %1, i64 0, i64 0
  store i8* %21, i8** %4, align 8
  %22 = getelementptr inbounds [100 x i8], [100 x i8]* %1, i64 0, i64 0
  store i8* %22, i8** %4, align 8
  br label %23

23:                                               ; preds = %50, %20
  %24 = load i8*, i8** %4, align 8
  %25 = getelementptr inbounds [100 x i8], [100 x i8]* %1, i64 0, i64 0
  %26 = getelementptr inbounds [100 x i8], [100 x i8]* %1, i64 0, i64 0
  %27 = call i64 @strlen(i8* %26) #3
  %28 = getelementptr inbounds i8, i8* %25, i64 %27
  %29 = icmp ult i8* %24, %28
  br i1 %29, label %30, label %53

30:                                               ; preds = %23
  %31 = load i8*, i8** %4, align 8
  %32 = load i8, i8* %31, align 1
  %33 = sext i8 %32 to i32
  %34 = call i32 @isalpha(i32 %33) #3
  %35 = icmp ne i32 %34, 0
  br i1 %35, label %49, label %36

36:                                               ; preds = %30
  %37 = load i8*, i8** %4, align 8
  %38 = load i8, i8* %37, align 1
  %39 = sext i8 %38 to i32
  %40 = call i32 @isdigit(i32 %39) #3
  %41 = icmp ne i32 %40, 0
  br i1 %41, label %49, label %42

42:                                               ; preds = %36
  %43 = load i8*, i8** %4, align 8
  %44 = load i8, i8* %43, align 1
  %45 = sext i8 %44 to i32
  %46 = icmp ne i32 %45, 95
  br i1 %46, label %47, label %49

47:                                               ; preds = %42
  store i32 1, i32* %3, align 4
  %48 = call i32 (i8*, ...) @printf(i8* getelementptr inbounds ([3 x i8], [3 x i8]* @.str.1, i64 0, i64 0))
  br label %53

49:                                               ; preds = %42, %36, %30
  br label %50

50:                                               ; preds = %49
  %51 = load i8*, i8** %4, align 8
  %52 = getelementptr inbounds i8, i8* %51, i32 1
  store i8* %52, i8** %4, align 8
  br label %23

53:                                               ; preds = %47, %23
  %54 = load i32, i32* %3, align 4
  %55 = icmp eq i32 %54, 1
  br i1 %55, label %56, label %57

56:                                               ; preds = %53
  br label %6

57:                                               ; preds = %53
  %58 = getelementptr inbounds [100 x i8], [100 x i8]* %1, i64 0, i64 0
  %59 = load i8, i8* %58, align 16
  %60 = sext i8 %59 to i32
  %61 = icmp eq i32 %60, 95
  br i1 %61, label %68, label %62

62:                                               ; preds = %57
  %63 = getelementptr inbounds [100 x i8], [100 x i8]* %1, i64 0, i64 0
  %64 = load i8, i8* %63, align 16
  %65 = sext i8 %64 to i32
  %66 = call i32 @isalpha(i32 %65) #3
  %67 = icmp ne i32 %66, 0
  br i1 %67, label %68, label %70

68:                                               ; preds = %62, %57
  %69 = call i32 (i8*, ...) @printf(i8* getelementptr inbounds ([3 x i8], [3 x i8]* @.str.2, i64 0, i64 0))
  br label %72

70:                                               ; preds = %62
  %71 = call i32 (i8*, ...) @printf(i8* getelementptr inbounds ([3 x i8], [3 x i8]* @.str.1, i64 0, i64 0))
  br label %72

72:                                               ; preds = %70, %68
  br label %6

73:                                               ; preds = %6
  ret void
}

declare dso_local i32 @__isoc99_scanf(i8*, ...) #1

declare dso_local i32 @gets(...) #1

; Function Attrs: nounwind readonly
declare dso_local i64 @strlen(i8*) #2

; Function Attrs: nounwind readonly
declare dso_local i32 @isalpha(i32) #2

; Function Attrs: nounwind readonly
declare dso_local i32 @isdigit(i32) #2

declare dso_local i32 @printf(i8*, ...) #1


!llvm.module.flags = !{!0}
!llvm.ident = !{!1}

!0 = !{i32 1, !"wchar_size", i32 4}
!1 = !{!"clang version 10.0.0-4ubuntu1 "}
