; ModuleID = 'source-C-CXX/57/48.c'
source_filename = "source-C-CXX/57/48.c"
target datalayout = "e-m:e-p270:32:32-p271:32:32-p272:64:64-i64:64-f80:128-n8:16:32:64-S128"
target triple = "x86_64-pc-linux-gnu"

@.str = private unnamed_addr constant [4 x i8] c"%d\0A\00", align 1
@str.3 = private unnamed_addr constant [2 x i8] c"1\00", align 1
@str.4 = private unnamed_addr constant [2 x i8] c"0\00", align 1

; Function Attrs: nounwind sspstrong uwtable
define dso_local void @main() local_unnamed_addr #0 {
  %1 = alloca [100 x i8], align 16
  %2 = alloca i32, align 4
  %3 = getelementptr inbounds [100 x i8], [100 x i8]* %1, i64 0, i64 0
  call void @llvm.lifetime.start.p0i8(i64 100, i8* nonnull %3) #7
  %4 = bitcast i32* %2 to i8*
  call void @llvm.lifetime.start.p0i8(i64 4, i8* nonnull %4) #7
  store i32 0, i32* %2, align 4, !tbaa !5
  %5 = call i32 (i8*, ...) @__isoc99_scanf(i8* getelementptr inbounds ([4 x i8], [4 x i8]* @.str, i64 0, i64 0), i32* nonnull %2)
  %6 = load i32, i32* %2, align 4, !tbaa !5
  %7 = add nsw i32 %6, -1
  store i32 %7, i32* %2, align 4, !tbaa !5
  %8 = icmp eq i32 %6, 0
  br i1 %8, label %60, label %9

9:                                                ; preds = %0
  %10 = getelementptr inbounds [100 x i8], [100 x i8]* %1, i64 0, i64 1
  br label %11

11:                                               ; preds = %9, %56
  %12 = call i32 (i8*, ...) bitcast (i32 (...)* @gets to i32 (i8*, ...)*)(i8* nonnull %3) #7
  %13 = load i8, i8* %3, align 16, !tbaa !9
  %14 = icmp eq i8 %13, 0
  br i1 %14, label %28, label %15

15:                                               ; preds = %11
  %16 = call i64 @strlen(i8* noundef nonnull %3) #8
  %17 = getelementptr inbounds [100 x i8], [100 x i8]* %1, i64 0, i64 %16
  %18 = icmp sgt i64 %16, 0
  br i1 %18, label %19, label %45

19:                                               ; preds = %15
  %20 = sext i8 %13 to i32
  %21 = call i32 @isalpha(i32 %20) #8
  %22 = icmp ne i32 %21, 0
  %23 = add nsw i32 %20, -48
  %24 = icmp ult i32 %23, 10
  %25 = select i1 %22, i1 true, i1 %24
  %26 = icmp eq i8 %13, 95
  %27 = select i1 %25, i1 true, i1 %26
  br i1 %27, label %31, label %52, !llvm.loop !10

28:                                               ; preds = %11
  %29 = load i32, i32* %2, align 4, !tbaa !5
  %30 = add nsw i32 %29, 1
  br label %56, !llvm.loop !10

31:                                               ; preds = %19, %34
  %32 = phi i8* [ %44, %34 ], [ %10, %19 ]
  %33 = icmp ult i8* %32, %17
  br i1 %33, label %34, label %45, !llvm.loop !12

34:                                               ; preds = %31
  %35 = load i8, i8* %32, align 1, !tbaa !9
  %36 = sext i8 %35 to i32
  %37 = call i32 @isalpha(i32 %36) #8
  %38 = icmp ne i32 %37, 0
  %39 = add nsw i32 %36, -48
  %40 = icmp ult i32 %39, 10
  %41 = select i1 %38, i1 true, i1 %40
  %42 = icmp eq i8 %35, 95
  %43 = select i1 %41, i1 true, i1 %42
  %44 = getelementptr inbounds i8, i8* %32, i64 1
  br i1 %43, label %31, label %52, !llvm.loop !10

45:                                               ; preds = %31, %15
  %46 = icmp eq i8 %13, 95
  br i1 %46, label %52, label %47

47:                                               ; preds = %45
  %48 = sext i8 %13 to i32
  %49 = call i32 @isalpha(i32 %48) #8
  %50 = icmp eq i32 %49, 0
  %51 = select i1 %50, i8* getelementptr inbounds ([2 x i8], [2 x i8]* @str.4, i64 0, i64 0), i8* getelementptr inbounds ([2 x i8], [2 x i8]* @str.3, i64 0, i64 0)
  br label %52

52:                                               ; preds = %34, %19, %47, %45
  %53 = phi i8* [ getelementptr inbounds ([2 x i8], [2 x i8]* @str.3, i64 0, i64 0), %45 ], [ %51, %47 ], [ getelementptr inbounds ([2 x i8], [2 x i8]* @str.4, i64 0, i64 0), %19 ], [ getelementptr inbounds ([2 x i8], [2 x i8]* @str.4, i64 0, i64 0), %34 ]
  %54 = call i32 @puts(i8* nonnull dereferenceable(1) %53)
  %55 = load i32, i32* %2, align 4, !tbaa !5
  br label %56

56:                                               ; preds = %52, %28
  %57 = phi i32 [ %55, %52 ], [ %30, %28 ]
  %58 = add nsw i32 %57, -1
  store i32 %58, i32* %2, align 4, !tbaa !5
  %59 = icmp eq i32 %57, 0
  br i1 %59, label %60, label %11, !llvm.loop !10

60:                                               ; preds = %56, %0
  call void @llvm.lifetime.end.p0i8(i64 4, i8* nonnull %4) #7
  call void @llvm.lifetime.end.p0i8(i64 100, i8* nonnull %3) #7
  ret void
}

; Function Attrs: argmemonly mustprogress nofree nosync nounwind willreturn
declare void @llvm.lifetime.start.p0i8(i64 immarg, i8* nocapture) #1

; Function Attrs: nofree nounwind
declare noundef i32 @__isoc99_scanf(i8* nocapture noundef readonly, ...) local_unnamed_addr #2

declare i32 @gets(...) local_unnamed_addr #3

; Function Attrs: argmemonly mustprogress nofree nounwind readonly willreturn
declare i64 @strlen(i8* nocapture) local_unnamed_addr #4

; Function Attrs: mustprogress nofree nounwind readonly willreturn
declare i32 @isalpha(i32) local_unnamed_addr #5

; Function Attrs: argmemonly mustprogress nofree nosync nounwind willreturn
declare void @llvm.lifetime.end.p0i8(i64 immarg, i8* nocapture) #1

; Function Attrs: nofree nounwind
declare noundef i32 @puts(i8* nocapture noundef readonly) local_unnamed_addr #6


!llvm.module.flags = !{!0, !1, !2, !3}
!llvm.ident = !{!4}

!0 = !{i32 1, !"wchar_size", i32 4}
!1 = !{i32 7, !"PIC Level", i32 2}
!2 = !{i32 7, !"PIE Level", i32 2}
!3 = !{i32 7, !"uwtable", i32 1}
!4 = !{!"clang version 13.0.0"}
!5 = !{!6, !6, i64 0}
!6 = !{!"int", !7, i64 0}
!7 = !{!"omnipotent char", !8, i64 0}
!8 = !{!"Simple C/C++ TBAA"}
!9 = !{!7, !7, i64 0}
!10 = distinct !{!10, !11}
!11 = !{!"llvm.loop.mustprogress"}
!12 = distinct !{!12, !11}
